target datalayout = "e-m:e-p270:32:32-p271:32:32-p272:64:64-i64:64-i128:128-f80:128-n8:16:32:64-S128"
target triple = "x86_64-pc-linux-gnu"

%struct.nghttp2_session = type { %struct.nghttp2_map, %struct.nghttp2_outbound_queue, %struct.nghttp2_outbound_queue, %struct.nghttp2_outbound_queue, [8 x %struct.anon], %struct.nghttp2_active_outbound_item, %struct.nghttp2_inbound_frame, %struct.nghttp2_hd_deflater, %struct.nghttp2_hd_inflater, %struct.nghttp2_session_callbacks, %struct.nghttp2_mem, ptr, ptr, %struct.nghttp2_ratelim, i64, i64, i64, i64, i64, i64, i64, i64, i64, i64, i64, i64, i64, i64, i32, i32, i32, i32, i32, i32, i32, i32, i32, i32, i32, i32, i8, %struct.nghttp2_settings_storage, %struct.nghttp2_settings_storage, i32, i32, i32, i8, i8, i8, i8, i8, i8, [32 x i8] }
%struct.nghttp2_map = type { ptr, ptr, i64, i64 }
%struct.nghttp2_outbound_queue = type { ptr, ptr, i64 }
%struct.anon = type { %struct.nghttp2_pq }
%struct.nghttp2_pq = type { ptr, ptr, i64, i64, ptr }
%struct.nghttp2_active_outbound_item = type { ptr, %struct.nghttp2_bufs, i32 }
%struct.nghttp2_bufs = type { ptr, ptr, ptr, i64, i64, i64, i64, i64 }
%struct.nghttp2_inbound_frame = type { %union.nghttp2_frame, %union.nghttp2_ext_frame_payload, ptr, %struct.nghttp2_buf, %struct.nghttp2_buf, ptr, i64, i64, i64, i64, i32, [32 x i8] }
%union.nghttp2_frame = type { %struct.nghttp2_headers }
%struct.nghttp2_headers = type { %struct.nghttp2_frame_hd, i64, %struct.nghttp2_priority_spec, ptr, i64, i32 }
%struct.nghttp2_frame_hd = type { i64, i32, i8, i8, i8 }
%struct.nghttp2_priority_spec = type { i32, i32, i8 }
%union.nghttp2_ext_frame_payload = type { %struct.nghttp2_ext_altsvc }
%struct.nghttp2_ext_altsvc = type { ptr, i64, ptr, i64 }
%struct.nghttp2_buf = type { ptr, ptr, ptr, ptr, ptr }
%struct.nghttp2_hd_deflater = type { %struct.nghttp2_hd_context, %struct.nghttp2_hd_map, i64, i64, i8 }
%struct.nghttp2_hd_context = type { %struct.nghttp2_hd_ringbuf, ptr, i64, i64, i32, i8 }
%struct.nghttp2_hd_ringbuf = type { ptr, i64, i64, i64 }
%struct.nghttp2_hd_map = type { [128 x ptr] }
%struct.nghttp2_hd_inflater = type { %struct.nghttp2_hd_context, %struct.nghttp2_hd_huff_decode_context, %struct.nghttp2_buf, %struct.nghttp2_buf, ptr, ptr, ptr, ptr, i64, i64, i64, i64, i64, i32, i32, i8, i8, i8 }
%struct.nghttp2_hd_huff_decode_context = type { i16 }
%struct.nghttp2_session_callbacks = type { ptr, ptr, ptr, ptr, ptr, ptr, ptr, ptr, ptr, ptr, ptr, ptr, ptr, ptr, ptr, ptr, ptr, ptr, ptr, ptr, ptr, ptr, ptr, ptr, ptr, ptr, ptr, ptr }
%struct.nghttp2_mem = type { ptr, ptr, ptr, ptr, ptr }
%struct.nghttp2_ratelim = type { i64, i64, i64, i64 }
%struct.nghttp2_settings_storage = type { i32, i32, i32, i32, i32, i32, i32, i32 }
%struct.nghttp2_outbound_item = type { %union.nghttp2_frame, %union.nghttp2_ext_frame_payload, %union.nghttp2_aux_data, i64, ptr, i8 }
%union.nghttp2_aux_data = type { %struct.nghttp2_headers_aux_data }
%struct.nghttp2_headers_aux_data = type { %struct.nghttp2_data_provider_wrap, ptr, i32, i8 }
%struct.nghttp2_data_provider_wrap = type { i32, %union.anon }
%union.anon = type { %struct.anon.0 }
%struct.anon.0 = type { %union.nghttp2_data_source, ptr }
%union.nghttp2_data_source = type { ptr }
%struct.nghttp2_ext_aux_data = type { i8 }
%struct.nghttp2_extension = type { %struct.nghttp2_frame_hd, ptr }

; Function Attrs: nounwind uwtable
define i32 @nghttp2_submit_altsvc(ptr noundef %0, i8 noundef zeroext %1, i32 noundef %2, ptr noundef %3, i64 noundef %4, ptr noundef %5, i64 noundef %6) #0 {
  %8 = alloca i32, align 4
  %9 = alloca ptr, align 8
  %10 = alloca i8, align 1
  %11 = alloca i32, align 4
  %12 = alloca ptr, align 8
  %13 = alloca i64, align 8
  %14 = alloca ptr, align 8
  %15 = alloca i64, align 8
  %16 = alloca ptr, align 8
  %17 = alloca ptr, align 8
  %18 = alloca ptr, align 8
  %19 = alloca ptr, align 8
  %20 = alloca ptr, align 8
  %21 = alloca ptr, align 8
  %22 = alloca ptr, align 8
  %23 = alloca ptr, align 8
  %24 = alloca i32, align 4
  %25 = alloca i32, align 4
  store ptr %0, ptr %9, align 8, !tbaa !3
  store i8 %1, ptr %10, align 1, !tbaa !13
  store i32 %2, ptr %11, align 4, !tbaa !8
  store ptr %3, ptr %12, align 8, !tbaa !43
  store i64 %4, ptr %13, align 8, !tbaa !11
  store ptr %5, ptr %14, align 8, !tbaa !43
  store i64 %6, ptr %15, align 8, !tbaa !11
  call void @llvm.lifetime.start.p0(i64 8, ptr %16) #7
  call void @llvm.lifetime.start.p0(i64 8, ptr %17) #7
  call void @llvm.lifetime.start.p0(i64 8, ptr %18) #7
  call void @llvm.lifetime.start.p0(i64 8, ptr %19) #7
  call void @llvm.lifetime.start.p0(i64 8, ptr %20) #7
  call void @llvm.lifetime.start.p0(i64 8, ptr %21) #7
  call void @llvm.lifetime.start.p0(i64 8, ptr %22) #7
  call void @llvm.lifetime.start.p0(i64 8, ptr %23) #7
  call void @llvm.lifetime.start.p0(i64 4, ptr %24) #7
  %26 = load ptr, ptr %9, align 8, !tbaa !3
  %27 = getelementptr inbounds nuw %struct.nghttp2_session, ptr %26, i32 0, i32 10
  store ptr %27, ptr %16, align 8, !tbaa !10
  %28 = load ptr, ptr %9, align 8, !tbaa !3
  %29 = getelementptr inbounds nuw %struct.nghttp2_session, ptr %28, i32 0, i32 49
  %30 = load i8, ptr %29, align 1, !tbaa !16
  %31 = icmp ne i8 %30, 0
  br i1 %31, label %33, label %32

32:                                               ; preds = %7
  store i32 -519, ptr %8, align 4
  store i32 1, ptr %25, align 4
  br label %125

33:                                               ; preds = %7
  %34 = load i64, ptr %13, align 8, !tbaa !11
  %35 = add i64 2, %34
  %36 = load i64, ptr %15, align 8, !tbaa !11
  %37 = add i64 %35, %36
  %38 = icmp ugt i64 %37, 16384
  br i1 %38, label %39, label %40

39:                                               ; preds = %33
  store i32 -501, ptr %8, align 4
  store i32 1, ptr %25, align 4
  br label %125

40:                                               ; preds = %33
  %41 = load i32, ptr %11, align 4, !tbaa !8
  %42 = icmp eq i32 %41, 0
  br i1 %42, label %43, label %48

43:                                               ; preds = %40
  %44 = load i64, ptr %13, align 8, !tbaa !11
  %45 = icmp eq i64 %44, 0
  br i1 %45, label %46, label %47

46:                                               ; preds = %43
  store i32 -501, ptr %8, align 4
  store i32 1, ptr %25, align 4
  br label %125

47:                                               ; preds = %43
  br label %53

48:                                               ; preds = %40
  %49 = load i64, ptr %13, align 8, !tbaa !11
  %50 = icmp ne i64 %49, 0
  br i1 %50, label %51, label %52

51:                                               ; preds = %48
  store i32 -501, ptr %8, align 4
  store i32 1, ptr %25, align 4
  br label %125

52:                                               ; preds = %48
  br label %53

53:                                               ; preds = %52, %47
  %54 = load ptr, ptr %16, align 8, !tbaa !10
  %55 = load i64, ptr %13, align 8, !tbaa !11
  %56 = load i64, ptr %15, align 8, !tbaa !11
  %57 = add i64 %55, %56
  %58 = add i64 %57, 2
  %59 = call ptr @nghttp2_mem_malloc(ptr noundef %54, i64 noundef %58)
  store ptr %59, ptr %17, align 8, !tbaa !43
  %60 = load ptr, ptr %17, align 8, !tbaa !43
  %61 = icmp eq ptr %60, null
  br i1 %61, label %62, label %63

62:                                               ; preds = %53
  store i32 -901, ptr %8, align 4
  store i32 1, ptr %25, align 4
  br label %125

63:                                               ; preds = %53
  %64 = load ptr, ptr %17, align 8, !tbaa !43
  store ptr %64, ptr %18, align 8, !tbaa !43
  %65 = load ptr, ptr %18, align 8, !tbaa !43
  store ptr %65, ptr %19, align 8, !tbaa !43
  %66 = load i64, ptr %13, align 8, !tbaa !11
  %67 = icmp ne i64 %66, 0
  br i1 %67, label %68, label %73

68:                                               ; preds = %63
  %69 = load ptr, ptr %18, align 8, !tbaa !43
  %70 = load ptr, ptr %12, align 8, !tbaa !43
  %71 = load i64, ptr %13, align 8, !tbaa !11
  %72 = call ptr @nghttp2_cpymem(ptr noundef %69, ptr noundef %70, i64 noundef %71)
  store ptr %72, ptr %18, align 8, !tbaa !43
  br label %73

73:                                               ; preds = %68, %63
  %74 = load ptr, ptr %18, align 8, !tbaa !43
  %75 = getelementptr inbounds nuw i8, ptr %74, i32 1
  store ptr %75, ptr %18, align 8, !tbaa !43
  store i8 0, ptr %74, align 1, !tbaa !13
  %76 = load ptr, ptr %18, align 8, !tbaa !43
  store ptr %76, ptr %20, align 8, !tbaa !43
  %77 = load i64, ptr %15, align 8, !tbaa !11
  %78 = icmp ne i64 %77, 0
  br i1 %78, label %79, label %84

79:                                               ; preds = %73
  %80 = load ptr, ptr %18, align 8, !tbaa !43
  %81 = load ptr, ptr %14, align 8, !tbaa !43
  %82 = load i64, ptr %15, align 8, !tbaa !11
  %83 = call ptr @nghttp2_cpymem(ptr noundef %80, ptr noundef %81, i64 noundef %82)
  store ptr %83, ptr %18, align 8, !tbaa !43
  br label %84

84:                                               ; preds = %79, %73
  %85 = load ptr, ptr %18, align 8, !tbaa !43
  %86 = getelementptr inbounds nuw i8, ptr %85, i32 1
  store ptr %86, ptr %18, align 8, !tbaa !43
  store i8 0, ptr %85, align 1, !tbaa !13
  %87 = load ptr, ptr %16, align 8, !tbaa !10
  %88 = call ptr @nghttp2_mem_malloc(ptr noundef %87, i64 noundef 160)
  store ptr %88, ptr %21, align 8, !tbaa !46
  %89 = load ptr, ptr %21, align 8, !tbaa !46
  %90 = icmp eq ptr %89, null
  br i1 %90, label %91, label %92

91:                                               ; preds = %84
  store i32 -901, ptr %24, align 4, !tbaa !8
  br label %122

92:                                               ; preds = %84
  %93 = load ptr, ptr %21, align 8, !tbaa !46
  call void @nghttp2_outbound_item_init(ptr noundef %93)
  %94 = load ptr, ptr %21, align 8, !tbaa !46
  %95 = getelementptr inbounds nuw %struct.nghttp2_outbound_item, ptr %94, i32 0, i32 2
  %96 = getelementptr inbounds nuw %struct.nghttp2_ext_aux_data, ptr %95, i32 0, i32 0
  store i8 1, ptr %96, align 8, !tbaa !13
  %97 = load ptr, ptr %21, align 8, !tbaa !46
  %98 = getelementptr inbounds nuw %struct.nghttp2_outbound_item, ptr %97, i32 0, i32 1
  store ptr %98, ptr %23, align 8, !tbaa !10
  %99 = load ptr, ptr %21, align 8, !tbaa !46
  %100 = getelementptr inbounds nuw %struct.nghttp2_outbound_item, ptr %99, i32 0, i32 0
  store ptr %100, ptr %22, align 8, !tbaa !10
  %101 = load ptr, ptr %23, align 8, !tbaa !10
  %102 = load ptr, ptr %22, align 8, !tbaa !10
  %103 = getelementptr inbounds nuw %struct.nghttp2_extension, ptr %102, i32 0, i32 1
  store ptr %101, ptr %103, align 8, !tbaa !13
  %104 = load ptr, ptr %22, align 8, !tbaa !10
  %105 = load i32, ptr %11, align 4, !tbaa !8
  %106 = load ptr, ptr %19, align 8, !tbaa !43
  %107 = load i64, ptr %13, align 8, !tbaa !11
  %108 = load ptr, ptr %20, align 8, !tbaa !43
  %109 = load i64, ptr %15, align 8, !tbaa !11
  call void @nghttp2_frame_altsvc_init(ptr noundef %104, i32 noundef %105, ptr noundef %106, i64 noundef %107, ptr noundef %108, i64 noundef %109)
  %110 = load ptr, ptr %9, align 8, !tbaa !3
  %111 = load ptr, ptr %21, align 8, !tbaa !46
  %112 = call i32 @nghttp2_session_add_item(ptr noundef %110, ptr noundef %111)
  store i32 %112, ptr %24, align 4, !tbaa !8
  %113 = load i32, ptr %24, align 4, !tbaa !8
  %114 = icmp ne i32 %113, 0
  br i1 %114, label %115, label %121

115:                                              ; preds = %92
  %116 = load ptr, ptr %22, align 8, !tbaa !10
  %117 = load ptr, ptr %16, align 8, !tbaa !10
  call void @nghttp2_frame_altsvc_free(ptr noundef %116, ptr noundef %117)
  %118 = load ptr, ptr %16, align 8, !tbaa !10
  %119 = load ptr, ptr %21, align 8, !tbaa !46
  call void @nghttp2_mem_free(ptr noundef %118, ptr noundef %119)
  %120 = load i32, ptr %24, align 4, !tbaa !8
  store i32 %120, ptr %8, align 4
  store i32 1, ptr %25, align 4
  br label %125

121:                                              ; preds = %92
  store i32 0, ptr %8, align 4
  store i32 1, ptr %25, align 4
  br label %125

122:                                              ; preds = %91
  %123 = load ptr, ptr %17, align 8, !tbaa !43
  call void @free(ptr noundef %123) #7
  %124 = load i32, ptr %24, align 4, !tbaa !8
  store i32 %124, ptr %8, align 4
  store i32 1, ptr %25, align 4
  br label %125

125:                                              ; preds = %122, %121, %115, %62, %51, %46, %39, %32
  call void @llvm.lifetime.end.p0(i64 4, ptr %24) #7
  call void @llvm.lifetime.end.p0(i64 8, ptr %23) #7
  call void @llvm.lifetime.end.p0(i64 8, ptr %22) #7
  call void @llvm.lifetime.end.p0(i64 8, ptr %21) #7
  call void @llvm.lifetime.end.p0(i64 8, ptr %20) #7
  call void @llvm.lifetime.end.p0(i64 8, ptr %19) #7
  call void @llvm.lifetime.end.p0(i64 8, ptr %18) #7
  call void @llvm.lifetime.end.p0(i64 8, ptr %17) #7
  call void @llvm.lifetime.end.p0(i64 8, ptr %16) #7
  %126 = load i32, ptr %8, align 4
  ret i32 %126
}