; Function Attrs: nounwind uwtable
define i32 @nghttp2_submit_altsvc(ptr noundef %0, i8 noundef zeroext %1, i32 noundef %2, ptr noundef %3, i64 noundef %4, ptr noundef %5, i64 noundef %6) local_unnamed_addr #0 {
  %8 = getelementptr inbounds nuw i8, ptr %0, i64 2344
  %9 = getelementptr inbounds nuw i8, ptr %0, i64 2675
  %10 = load i8, ptr %9, align 1, !tbaa !39
  %.not = icmp eq i8 %10, 0
  br i1 %.not, label %41, label %11

11:                                               ; preds = %7
  %12 = add i64 %4, 2
  %13 = add i64 %12, %6
  %14 = icmp ugt i64 %13, 16384
  br i1 %14, label %41, label %15

15:                                               ; preds = %11
  %16 = icmp eq i32 %2, 0
  %17 = icmp eq i64 %4, 0
  br i1 %16, label %18, label %19

18:                                               ; preds = %15
  br i1 %17, label %41, label %20

19:                                               ; preds = %15
  br i1 %17, label %.thread, label %41

20:                                               ; preds = %18
  %21 = tail call ptr @nghttp2_mem_malloc(ptr noundef nonnull %8, i64 noundef %13) #8
  %22 = icmp eq ptr %21, null
  br i1 %22, label %41, label %25

.thread:                                          ; preds = %19
  %23 = tail call ptr @nghttp2_mem_malloc(ptr noundef nonnull %8, i64 noundef %13) #8
  %24 = icmp eq ptr %23, null
  br i1 %24, label %41, label %.thread58

25:                                               ; preds = %20
  %26 = tail call ptr @nghttp2_cpymem(ptr noundef nonnull %21, ptr noundef %3, i64 noundef %4) #8
  br label %.thread58

.thread58:                                        ; preds = %.thread, %25
  %27 = phi ptr [ %21, %25 ], [ %23, %.thread ]
  %.048 = phi ptr [ %26, %25 ], [ %23, %.thread ]
  %28 = getelementptr inbounds nuw i8, ptr %.048, i64 1
  store i8 0, ptr %.048, align 1, !tbaa !7
  %.not56 = icmp eq i64 %6, 0
  br i1 %.not56, label %31, label %29

29:                                               ; preds = %.thread58
  %30 = tail call ptr @nghttp2_cpymem(ptr noundef nonnull %28, ptr noundef %5, i64 noundef %6) #8
  br label %31

31:                                               ; preds = %29, %.thread58
  %.1 = phi ptr [ %30, %29 ], [ %28, %.thread58 ]
  store i8 0, ptr %.1, align 1, !tbaa !7
  %32 = tail call ptr @nghttp2_mem_malloc(ptr noundef nonnull %8, i64 noundef 160) #8
  %33 = icmp eq ptr %32, null
  br i1 %33, label %34, label %35

34:                                               ; preds = %31
  tail call void @free(ptr noundef nonnull %27) #8
  br label %41

35:                                               ; preds = %31
  tail call void @nghttp2_outbound_item_init(ptr noundef nonnull %32) #8
  %36 = getelementptr inbounds nuw i8, ptr %32, i64 96
  store i8 1, ptr %36, align 8, !tbaa !7
  %37 = getelementptr inbounds nuw i8, ptr %32, i64 64
  %38 = getelementptr inbounds nuw i8, ptr %32, i64 16
  store ptr %37, ptr %38, align 8, !tbaa !7
  tail call void @nghttp2_frame_altsvc_init(ptr noundef nonnull %32, i32 noundef %2, ptr noundef nonnull %27, i64 noundef %4, ptr noundef nonnull %28, i64 noundef %6) #8
  %39 = tail call i32 @nghttp2_session_add_item(ptr noundef nonnull %0, ptr noundef nonnull %32) #8
  %.not57 = icmp eq i32 %39, 0
  br i1 %.not57, label %41, label %40

40:                                               ; preds = %35
  tail call void @nghttp2_frame_altsvc_free(ptr noundef nonnull %32, ptr noundef nonnull %8) #8
  tail call void @nghttp2_mem_free(ptr noundef nonnull %8, ptr noundef nonnull %32) #8
  br label %41

41:                                               ; preds = %.thread, %35, %20, %19, %18, %11, %7, %34, %40
  %.0 = phi i32 [ -901, %34 ], [ %39, %40 ], [ -519, %7 ], [ -501, %11 ], [ -501, %18 ], [ -501, %19 ], [ -901, %20 ], [ 0, %35 ], [ -901, %.thread ]
  ret i32 %.0
}